; Function Attrs: mustprogress uwtable
define hidden void @_ZN4cvc58internal21RewriteProofGeneratorC2ERNS0_3EnvENS0_8MethodIdE(ptr noundef nonnull align 8 dereferenceable(56) %0, ptr noundef nonnull align 8 dereferenceable(696) %1, i32 noundef %2) unnamed_addr #3 align 2 personality ptr @__gxx_personality_v0 {
  tail call void @_ZN4cvc58internal6EnvObjC2ERNS0_3EnvE(ptr noundef nonnull align 8 dereferenceable(16) %0, ptr noundef nonnull align 8 dereferenceable(696) %1)
  %4 = getelementptr inbounds nuw i8, ptr %0, i64 16
  tail call void @_ZN4cvc58internal14ProofGeneratorC2Ev(ptr noundef nonnull align 8 dereferenceable(8) %4)
  store ptr getelementptr inbounds nuw inrange(-16, 32) (i8, ptr @_ZTVN4cvc58internal21RewriteProofGeneratorE, i64 16), ptr %0, align 8, !tbaa !3
  store ptr getelementptr inbounds nuw inrange(-16, 48) (i8, ptr @_ZTVN4cvc58internal21RewriteProofGeneratorE, i64 64), ptr %4, align 8, !tbaa !3
  %5 = getelementptr inbounds nuw i8, ptr %0, i64 24
  store i32 %2, ptr %5, align 8, !tbaa !6
  %6 = getelementptr inbounds nuw i8, ptr %0, i64 32
  tail call void @llvm.memset.p0.i64(ptr noundef nonnull align 8 dereferenceable(24) %6, i8 0, i64 24, i1 false)
  %7 = invoke noundef ptr @_ZNK4cvc58internal6EnvObj11nodeManagerEv(ptr noundef nonnull align 8 dereferenceable(16) %0)
          to label %8 unwind label %11

8:                                                ; preds = %3
  %9 = load i32, ptr %5, align 8, !tbaa !6
  invoke void @_ZN4cvc58internal12addMethodIdsEPNS0_11NodeManagerERSt6vectorINS0_12NodeTemplateILb1EEESaIS5_EENS0_8MethodIdES9_S9_(ptr noundef %7, ptr noundef nonnull align 8 dereferenceable(24) %6, i32 noundef 8, i32 noundef 11, i32 noundef %9)
          to label %10 unwind label %11

10:                                               ; preds = %8
  ret void

11:                                               ; preds = %8, %3
  %12 = landingpad { ptr, i32 }
          cleanup
  tail call void @_ZNSt6vectorIN4cvc58internal12NodeTemplateILb1EEESaIS3_EED2Ev(ptr noundef nonnull align 8 dereferenceable(24) %6) #19
  tail call void @_ZN4cvc58internal14ProofGeneratorD2Ev(ptr noundef nonnull align 8 dereferenceable(8) %4) #19
  resume { ptr, i32 } %12
}